target datalayout = "e-m:e-p270:32:32-p271:32:32-p272:64:64-i64:64-i128:128-f80:128-n8:16:32:64-S128"
target triple = "x86_64-pc-linux-gnu"

%struct.archive_read = type { %struct.archive, ptr, i32, i64, i64, %struct.archive_read_client, [16 x %struct.archive_read_filter_bidder], ptr, i32, i64, i32, i32, [16 x %struct.archive_format_descriptor], ptr, ptr, ptr, %struct.anon }
%struct.archive = type { i32, i32, ptr, i32, ptr, i32, i32, ptr, %struct.archive_string, ptr, i32, i32, ptr, ptr, i64, i64, i64, i8, i64 }
%struct.archive_string = type { ptr, i64, i64 }
%struct.archive_read_client = type { ptr, ptr, ptr, ptr, ptr, ptr, i32, i32, i64, ptr }
%struct.archive_read_filter_bidder = type { ptr, ptr, ptr }
%struct.archive_format_descriptor = type { ptr, ptr, ptr, ptr, ptr, ptr, ptr, ptr, ptr, ptr, ptr }
%struct.anon = type { ptr, ptr, i32, ptr, ptr }
%struct.huffman_code = type { ptr, i32, i32, i32, i32, i32, ptr }
%struct.huffman_table_entry = type { i32, i32 }
%struct.huffman_tree_node = type { [2 x i32] }

@.str.48 = private unnamed_addr constant [30 x i8] c"Huffman tree was not created.\00", align 1
@.str.49 = private unnamed_addr constant [44 x i8] c"Invalid location to Huffman tree specified.\00", align 1

; Function Attrs: nounwind uwtable
define internal i32 @make_table_recurse(ptr noundef %0, ptr noundef %1, i32 noundef %2, ptr noundef %3, i32 noundef %4, i32 noundef %5) #0 {
  %7 = alloca i32, align 4
  %8 = alloca ptr, align 8
  %9 = alloca ptr, align 8
  %10 = alloca i32, align 4
  %11 = alloca ptr, align 8
  %12 = alloca i32, align 4
  %13 = alloca i32, align 4
  %14 = alloca i32, align 4
  %15 = alloca i32, align 4
  %16 = alloca i32, align 4
  store ptr %0, ptr %8, align 8
  store ptr %1, ptr %9, align 8
  store i32 %2, ptr %10, align 4
  store ptr %3, ptr %11, align 8
  store i32 %4, ptr %12, align 4
  store i32 %5, ptr %13, align 4
  store i32 0, ptr %16, align 4
  %17 = load ptr, ptr %9, align 8
  %18 = getelementptr inbounds %struct.huffman_code, ptr %17, i32 0, i32 0
  %19 = load ptr, ptr %18, align 8
  %20 = icmp ne ptr %19, null
  br i1 %20, label %24, label %21

21:                                               ; preds = %6
  %22 = load ptr, ptr %8, align 8
  %23 = getelementptr inbounds %struct.archive_read, ptr %22, i32 0, i32 0
  call void (ptr, i32, ptr, ...) @archive_set_error(ptr noundef %23, i32 noundef 84, ptr noundef @.str.48)
  store i32 -30, ptr %7, align 4
  br label %148

24:                                               ; preds = %6
  %25 = load i32, ptr %10, align 4
  %26 = icmp slt i32 %25, 0
  br i1 %26, label %33, label %27

27:                                               ; preds = %24
  %28 = load i32, ptr %10, align 4
  %29 = load ptr, ptr %9, align 8
  %30 = getelementptr inbounds %struct.huffman_code, ptr %29, i32 0, i32 1
  %31 = load i32, ptr %30, align 8
  %32 = icmp sge i32 %28, %31
  br i1 %32, label %33, label %36

33:                                               ; preds = %27, %24
  %34 = load ptr, ptr %8, align 8
  %35 = getelementptr inbounds %struct.archive_read, ptr %34, i32 0, i32 0
  call void (ptr, i32, ptr, ...) @archive_set_error(ptr noundef %35, i32 noundef 84, ptr noundef @.str.49)
  store i32 -30, ptr %7, align 4
  br label %148

36:                                               ; preds = %27
  %37 = load i32, ptr %13, align 4
  %38 = load i32, ptr %12, align 4
  %39 = sub nsw i32 %37, %38
  %40 = shl i32 1, %39
  store i32 %40, ptr %14, align 4
  %41 = load ptr, ptr %9, align 8
  %42 = getelementptr inbounds %struct.huffman_code, ptr %41, i32 0, i32 0
  %43 = load ptr, ptr %42, align 8
  %44 = load i32, ptr %10, align 4
  %45 = sext i32 %44 to i64
  %46 = getelementptr inbounds %struct.huffman_tree_node, ptr %43, i64 %45
  %47 = getelementptr inbounds %struct.huffman_tree_node, ptr %46, i32 0, i32 0
  %48 = getelementptr inbounds [2 x i32], ptr %47, i64 0, i64 0
  %49 = load i32, ptr %48, align 4
  %50 = load ptr, ptr %9, align 8
  %51 = getelementptr inbounds %struct.huffman_code, ptr %50, i32 0, i32 0
  %52 = load ptr, ptr %51, align 8
  %53 = load i32, ptr %10, align 4
  %54 = sext i32 %53 to i64
  %55 = getelementptr inbounds %struct.huffman_tree_node, ptr %52, i64 %54
  %56 = getelementptr inbounds %struct.huffman_tree_node, ptr %55, i32 0, i32 0
  %57 = getelementptr inbounds [2 x i32], ptr %56, i64 0, i64 1
  %58 = load i32, ptr %57, align 4
  %59 = icmp eq i32 %49, %58
  br i1 %59, label %60, label %90

60:                                               ; preds = %36
  store i32 0, ptr %15, align 4
  br label %61

61:                                               ; preds = %86, %60
  %62 = load i32, ptr %15, align 4
  %63 = load i32, ptr %14, align 4
  %64 = icmp slt i32 %62, %63
  br i1 %64, label %65, label %89

65:                                               ; preds = %61
  %66 = load i32, ptr %12, align 4
  %67 = load ptr, ptr %11, align 8
  %68 = load i32, ptr %15, align 4
  %69 = sext i32 %68 to i64
  %70 = getelementptr inbounds %struct.huffman_table_entry, ptr %67, i64 %69
  %71 = getelementptr inbounds %struct.huffman_table_entry, ptr %70, i32 0, i32 0
  store i32 %66, ptr %71, align 4
  %72 = load ptr, ptr %9, align 8
  %73 = getelementptr inbounds %struct.huffman_code, ptr %72, i32 0, i32 0
  %74 = load ptr, ptr %73, align 8
  %75 = load i32, ptr %10, align 4
  %76 = sext i32 %75 to i64
  %77 = getelementptr inbounds %struct.huffman_tree_node, ptr %74, i64 %76
  %78 = getelementptr inbounds %struct.huffman_tree_node, ptr %77, i32 0, i32 0
  %79 = getelementptr inbounds [2 x i32], ptr %78, i64 0, i64 0
  %80 = load i32, ptr %79, align 4
  %81 = load ptr, ptr %11, align 8
  %82 = load i32, ptr %15, align 4
  %83 = sext i32 %82 to i64
  %84 = getelementptr inbounds %struct.huffman_table_entry, ptr %81, i64 %83
  %85 = getelementptr inbounds %struct.huffman_table_entry, ptr %84, i32 0, i32 1
  store i32 %80, ptr %85, align 4
  br label %86

86:                                               ; preds = %65
  %87 = load i32, ptr %15, align 4
  %88 = add nsw i32 %87, 1
  store i32 %88, ptr %15, align 4
  br label %61, !llvm.loop !48

89:                                               ; preds = %61
  br label %146

90:                                               ; preds = %36
  %91 = load i32, ptr %12, align 4
  %92 = load i32, ptr %13, align 4
  %93 = icmp eq i32 %91, %92
  br i1 %93, label %94, label %104

94:                                               ; preds = %90
  %95 = load i32, ptr %13, align 4
  %96 = add nsw i32 %95, 1
  %97 = load ptr, ptr %11, align 8
  %98 = getelementptr inbounds %struct.huffman_table_entry, ptr %97, i64 0
  %99 = getelementptr inbounds %struct.huffman_table_entry, ptr %98, i32 0, i32 0
  store i32 %96, ptr %99, align 4
  %100 = load i32, ptr %10, align 4
  %101 = load ptr, ptr %11, align 8
  %102 = getelementptr inbounds %struct.huffman_table_entry, ptr %101, i64 0
  %103 = getelementptr inbounds %struct.huffman_table_entry, ptr %102, i32 0, i32 1
  store i32 %100, ptr %103, align 4
  br label %145

104:                                              ; preds = %90
  %105 = load ptr, ptr %8, align 8
  %106 = load ptr, ptr %9, align 8
  %107 = load ptr, ptr %9, align 8
  %108 = getelementptr inbounds %struct.huffman_code, ptr %107, i32 0, i32 0
  %109 = load ptr, ptr %108, align 8
  %110 = load i32, ptr %10, align 4
  %111 = sext i32 %110 to i64
  %112 = getelementptr inbounds %struct.huffman_tree_node, ptr %109, i64 %111
  %113 = getelementptr inbounds %struct.huffman_tree_node, ptr %112, i32 0, i32 0
  %114 = getelementptr inbounds [2 x i32], ptr %113, i64 0, i64 0
  %115 = load i32, ptr %114, align 4
  %116 = load ptr, ptr %11, align 8
  %117 = load i32, ptr %12, align 4
  %118 = add nsw i32 %117, 1
  %119 = load i32, ptr %13, align 4
  %120 = call i32 @make_table_recurse(ptr noundef %105, ptr noundef %106, i32 noundef %115, ptr noundef %116, i32 noundef %118, i32 noundef %119)
  %121 = load i32, ptr %16, align 4
  %122 = or i32 %121, %120
  store i32 %122, ptr %16, align 4
  %123 = load ptr, ptr %8, align 8
  %124 = load ptr, ptr %9, align 8
  %125 = load ptr, ptr %9, align 8
  %126 = getelementptr inbounds %struct.huffman_code, ptr %125, i32 0, i32 0
  %127 = load ptr, ptr %126, align 8
  %128 = load i32, ptr %10, align 4
  %129 = sext i32 %128 to i64
  %130 = getelementptr inbounds %struct.huffman_tree_node, ptr %127, i64 %129
  %131 = getelementptr inbounds %struct.huffman_tree_node, ptr %130, i32 0, i32 0
  %132 = getelementptr inbounds [2 x i32], ptr %131, i64 0, i64 1
  %133 = load i32, ptr %132, align 4
  %134 = load ptr, ptr %11, align 8
  %135 = load i32, ptr %14, align 4
  %136 = sdiv i32 %135, 2
  %137 = sext i32 %136 to i64
  %138 = getelementptr inbounds %struct.huffman_table_entry, ptr %134, i64 %137
  %139 = load i32, ptr %12, align 4
  %140 = add nsw i32 %139, 1
  %141 = load i32, ptr %13, align 4
  %142 = call i32 @make_table_recurse(ptr noundef %123, ptr noundef %124, i32 noundef %133, ptr noundef %138, i32 noundef %140, i32 noundef %141)
  %143 = load i32, ptr %16, align 4
  %144 = or i32 %143, %142
  store i32 %144, ptr %16, align 4
  br label %145

145:                                              ; preds = %104, %94
  br label %146

146:                                              ; preds = %145, %89
  %147 = load i32, ptr %16, align 4
  store i32 %147, ptr %7, align 4
  br label %148

148:                                              ; preds = %146, %33, %21
  %149 = load i32, ptr %7, align 4
  ret i32 %149
}